target datalayout = "e-m:e-p270:32:32-p271:32:32-p272:64:64-i64:64-i128:128-f80:128-n8:16:32:64-S128"
target triple = "x86_64-pc-linux-gnu"

%struct.app_context = type { ptr, ptr }
%struct.http2_session_data = type { %struct.http2_stream_data, ptr, ptr, ptr, ptr }
%struct.http2_stream_data = type { ptr, ptr, ptr, i32, i32 }

@.str.8 = private unnamed_addr constant [10 x i8] c"(unknown)\00", align 1
@.str.9 = private unnamed_addr constant [44 x i8] c"Could not create SSL/TLS session object: %s\00", align 1

; Function Attrs: nounwind uwtable
define internal ptr @create_ssl(ptr noundef %0) #0 {
  %2 = alloca ptr, align 8
  %3 = alloca ptr, align 8
  store ptr %0, ptr %2, align 8, !tbaa !17
  call void @llvm.lifetime.start.p0(i64 8, ptr %3) #11
  %4 = load ptr, ptr %2, align 8, !tbaa !17
  %5 = call ptr @SSL_new(ptr noundef %4)
  store ptr %5, ptr %3, align 8, !tbaa !40
  %6 = load ptr, ptr %3, align 8, !tbaa !40
  %7 = icmp ne ptr %6, null
  br i1 %7, label %11, label %8

8:                                                ; preds = %1
  %9 = call i64 @ERR_get_error()
  %10 = call ptr @ERR_error_string(i64 noundef %9, ptr noundef null)
  call void (i32, ptr, ...) @errx(i32 noundef 1, ptr noundef @.str.9, ptr noundef %10) #13
  unreachable

11:                                               ; preds = %1
  %12 = load ptr, ptr %3, align 8, !tbaa !40
  call void @llvm.lifetime.end.p0(i64 8, ptr %3) #11
  ret ptr %12
}

; Function Attrs: nounwind uwtable
define internal ptr @create_http2_session_data(ptr noundef %0, i32 noundef %1, ptr noundef %2, i32 noundef %3) #0 {
  %5 = alloca ptr, align 8
  %6 = alloca i32, align 4
  %7 = alloca ptr, align 8
  %8 = alloca i32, align 4
  %9 = alloca i32, align 4
  %10 = alloca ptr, align 8
  %11 = alloca ptr, align 8
  %12 = alloca [1025 x i8], align 16
  %13 = alloca i32, align 4
  store ptr %0, ptr %5, align 8, !tbaa !21
  store i32 %1, ptr %6, align 4, !tbaa !4
  store ptr %2, ptr %7, align 8, !tbaa !43
  store i32 %3, ptr %8, align 4, !tbaa !4
  call void @llvm.lifetime.start.p0(i64 4, ptr %9) #11
  call void @llvm.lifetime.start.p0(i64 8, ptr %10) #11
  call void @llvm.lifetime.start.p0(i64 8, ptr %11) #11
  call void @llvm.lifetime.start.p0(i64 1025, ptr %12) #11
  call void @llvm.lifetime.start.p0(i64 4, ptr %13) #11
  store i32 1, ptr %13, align 4, !tbaa !4
  %14 = load ptr, ptr %5, align 8, !tbaa !21
  %15 = getelementptr inbounds nuw %struct.app_context, ptr %14, i32 0, i32 0
  %16 = load ptr, ptr %15, align 8, !tbaa !23
  %17 = call ptr @create_ssl(ptr noundef %16)
  store ptr %17, ptr %11, align 8, !tbaa !40
  %18 = call noalias ptr @malloc(i64 noundef 64) #14
  store ptr %18, ptr %10, align 8, !tbaa !44
  %19 = load ptr, ptr %10, align 8, !tbaa !44
  call void @llvm.memset.p0.i64(ptr align 8 %19, i8 0, i64 64, i1 false)
  %20 = load ptr, ptr %5, align 8, !tbaa !21
  %21 = load ptr, ptr %10, align 8, !tbaa !44
  %22 = getelementptr inbounds nuw %struct.http2_session_data, ptr %21, i32 0, i32 2
  store ptr %20, ptr %22, align 8, !tbaa !52
  %23 = load i32, ptr %6, align 4, !tbaa !4
  %24 = call i32 @setsockopt(i32 noundef %23, i32 noundef 6, i32 noundef 1, ptr noundef %13, i32 noundef 4) #11
  %25 = load ptr, ptr %5, align 8, !tbaa !21
  %26 = getelementptr inbounds nuw %struct.app_context, ptr %25, i32 0, i32 1
  %27 = load ptr, ptr %26, align 8, !tbaa !25
  %28 = load i32, ptr %6, align 4, !tbaa !4
  %29 = load ptr, ptr %11, align 8, !tbaa !40
  %30 = call ptr @bufferevent_openssl_socket_new(ptr noundef %27, i32 noundef %28, ptr noundef %29, i32 noundef 2, i32 noundef 5)
  %31 = load ptr, ptr %10, align 8, !tbaa !44
  %32 = getelementptr inbounds nuw %struct.http2_session_data, ptr %31, i32 0, i32 1
  store ptr %30, ptr %32, align 8, !tbaa !46
  %33 = load ptr, ptr %10, align 8, !tbaa !44
  %34 = getelementptr inbounds nuw %struct.http2_session_data, ptr %33, i32 0, i32 1
  %35 = load ptr, ptr %34, align 8, !tbaa !46
  %36 = call i32 @bufferevent_enable(ptr noundef %35, i16 noundef signext 6)
  %37 = load ptr, ptr %7, align 8, !tbaa !43
  %38 = load i32, ptr %8, align 4, !tbaa !4
  %39 = getelementptr inbounds [1025 x i8], ptr %12, i64 0, i64 0
  %40 = call i32 @getnameinfo(ptr noundef %37, i32 noundef %38, ptr noundef %39, i32 noundef 1025, ptr noundef null, i32 noundef 0, i32 noundef 1)
  store i32 %40, ptr %9, align 4, !tbaa !4
  %41 = load i32, ptr %9, align 4, !tbaa !4
  %42 = icmp ne i32 %41, 0
  br i1 %42, label %43, label %47

43:                                               ; preds = %4
  %44 = call noalias ptr @strdup(ptr noundef @.str.8) #11
  %45 = load ptr, ptr %10, align 8, !tbaa !44
  %46 = getelementptr inbounds nuw %struct.http2_session_data, ptr %45, i32 0, i32 4
  store ptr %44, ptr %46, align 8, !tbaa !53
  br label %52

47:                                               ; preds = %4
  %48 = getelementptr inbounds [1025 x i8], ptr %12, i64 0, i64 0
  %49 = call noalias ptr @strdup(ptr noundef %48) #11
  %50 = load ptr, ptr %10, align 8, !tbaa !44
  %51 = getelementptr inbounds nuw %struct.http2_session_data, ptr %50, i32 0, i32 4
  store ptr %49, ptr %51, align 8, !tbaa !53
  br label %52

52:                                               ; preds = %47, %43
  %53 = load ptr, ptr %10, align 8, !tbaa !44
  call void @llvm.lifetime.end.p0(i64 4, ptr %13) #11
  call void @llvm.lifetime.end.p0(i64 1025, ptr %12) #11
  call void @llvm.lifetime.end.p0(i64 8, ptr %11) #11
  call void @llvm.lifetime.end.p0(i64 8, ptr %10) #11
  call void @llvm.lifetime.end.p0(i64 4, ptr %9) #11
  ret ptr %53
}

; Function Attrs: nounwind uwtable
define internal void @acceptcb(ptr noundef %0, i32 noundef %1, ptr noundef %2, i32 noundef %3, ptr noundef %4) #0 {
  %6 = alloca ptr, align 8
  %7 = alloca i32, align 4
  %8 = alloca ptr, align 8
  %9 = alloca i32, align 4
  %10 = alloca ptr, align 8
  %11 = alloca ptr, align 8
  %12 = alloca ptr, align 8
  store ptr %0, ptr %6, align 8, !tbaa !35
  store i32 %1, ptr %7, align 4, !tbaa !4
  store ptr %2, ptr %8, align 8, !tbaa !43
  store i32 %3, ptr %9, align 4, !tbaa !4
  store ptr %4, ptr %10, align 8, !tbaa !42
  call void @llvm.lifetime.start.p0(i64 8, ptr %11) #11
  %13 = load ptr, ptr %10, align 8, !tbaa !42
  store ptr %13, ptr %11, align 8, !tbaa !21
  call void @llvm.lifetime.start.p0(i64 8, ptr %12) #11
  %14 = load ptr, ptr %11, align 8, !tbaa !21
  %15 = load i32, ptr %7, align 4, !tbaa !4
  %16 = load ptr, ptr %8, align 8, !tbaa !43
  %17 = load i32, ptr %9, align 4, !tbaa !4
  %18 = call ptr @create_http2_session_data(ptr noundef %14, i32 noundef %15, ptr noundef %16, i32 noundef %17)
  store ptr %18, ptr %12, align 8, !tbaa !44
  %19 = load ptr, ptr %12, align 8, !tbaa !44
  %20 = getelementptr inbounds nuw %struct.http2_session_data, ptr %19, i32 0, i32 1
  %21 = load ptr, ptr %20, align 8, !tbaa !46
  %22 = load ptr, ptr %12, align 8, !tbaa !44
  call void @bufferevent_setcb(ptr noundef %21, ptr noundef @readcb, ptr noundef @writecb, ptr noundef @eventcb, ptr noundef %22)
  call void @llvm.lifetime.end.p0(i64 8, ptr %12) #11
  call void @llvm.lifetime.end.p0(i64 8, ptr %11) #11
  ret void
}