; Function Attrs: nounwind uwtable
define internal void @acceptcb(ptr readnone captures(none) %0, i32 noundef %1, ptr noundef %2, i32 noundef %3, ptr noundef %4) #0 {
  %6 = alloca [1025 x i8], align 16
  %7 = alloca i32, align 4
  call void @llvm.lifetime.start.p0(i64 1025, ptr nonnull %6) #21
  call void @llvm.lifetime.start.p0(i64 4, ptr nonnull %7) #21
  store i32 1, ptr %7, align 4, !tbaa !28
  %8 = load ptr, ptr %4, align 8, !tbaa !12
  %9 = tail call ptr @SSL_new(ptr noundef %8) #21
  %.not.i.i = icmp eq ptr %9, null
  br i1 %.not.i.i, label %10, label %create_http2_session_data.exit

10:                                               ; preds = %5
  %11 = tail call i64 @ERR_get_error() #21
  %12 = tail call ptr @ERR_error_string(i64 noundef %11, ptr noundef null) #21
  tail call void (i32, ptr, ...) @errx(i32 noundef 1, ptr noundef nonnull @.str.9, ptr noundef %12) #24
  unreachable

create_http2_session_data.exit:                   ; preds = %5
  %calloc.i = tail call dereferenceable_or_null(64) ptr @calloc(i64 1, i64 64)
  %13 = getelementptr inbounds nuw i8, ptr %calloc.i, i64 40
  store ptr %4, ptr %13, align 8, !tbaa !29
  %14 = call i32 @setsockopt(i32 noundef %1, i32 noundef 6, i32 noundef 1, ptr noundef nonnull %7, i32 noundef 4) #21
  %15 = getelementptr inbounds nuw i8, ptr %4, i64 8
  %16 = load ptr, ptr %15, align 8, !tbaa !16
  %17 = call ptr @bufferevent_openssl_socket_new(ptr noundef %16, i32 noundef %1, ptr noundef nonnull %9, i32 noundef 2, i32 noundef 5) #21
  %18 = getelementptr inbounds nuw i8, ptr %calloc.i, i64 32
  store ptr %17, ptr %18, align 8, !tbaa !36
  %19 = call i32 @bufferevent_enable(ptr noundef %17, i16 noundef signext 6) #21
  %20 = call i32 @getnameinfo(ptr noundef %2, i32 noundef %3, ptr noundef nonnull %6, i32 noundef 1025, ptr noundef null, i32 noundef 0, i32 noundef 1) #21
  %.not.i = icmp eq i32 %20, 0
  %..str.8.i = select i1 %.not.i, ptr %6, ptr @.str.8
  %21 = call noalias ptr @strdup(ptr noundef nonnull %..str.8.i) #21
  %22 = getelementptr inbounds nuw i8, ptr %calloc.i, i64 56
  store ptr %21, ptr %22, align 8, !tbaa !37
  call void @llvm.lifetime.end.p0(i64 4, ptr nonnull %7) #21
  call void @llvm.lifetime.end.p0(i64 1025, ptr nonnull %6) #21
  call void @bufferevent_setcb(ptr noundef %17, ptr noundef nonnull @readcb, ptr noundef nonnull @writecb, ptr noundef nonnull @eventcb, ptr noundef %calloc.i) #21
  ret void
}